---
triple:          'arm64-apple-darwin'
binary-path:     a.out
relocations:
  - { offsetInCU: 0xDFAD, offset: 0xDFAD, size: 0x8, addend: 0x0, symName: __ZNSt3__16chronomiB7v160006IxNS_5ratioILl1ELl1000000000EEExS3_EENS_11common_typeIJNS0_8durationIT_T0_EENS5_IT1_T2_EEEE4typeERKS8_RKSB_, symObjAddr: 0x2E54, symBinAddr: 0x1000056F4, symSize: 0x70 }
  - { offsetInCU: 0xE135, offset: 0xE135, size: 0x8, addend: 0x0, symName: __ZNSt3__16chrono13duration_castB7v160006INS0_8durationIxNS_5ratioILl1ELl1000EEEEExNS3_ILl1ELl1000000000EEEEENS_9enable_ifIXsr13__is_durationIT_EE5valueES8_E4typeERKNS2_IT0_T1_EE, symObjAddr: 0x2E24, symBinAddr: 0x1000056C4, symSize: 0x30 }
  - { offsetInCU: 0xE17C, offset: 0xE17C, size: 0x8, addend: 0x0, symName: __ZNSt3__16chronomiB7v160006INS0_12steady_clockENS0_8durationIxNS_5ratioILl1ELl1000000000EEEEES6_EENS_11common_typeIJT0_T1_EE4typeERKNS0_10time_pointIT_S8_EERKNSC_ISD_S9_EE, symObjAddr: 0x2EC4, symBinAddr: 0x100005764, symSize: 0x58 }
  - { offsetInCU: 0xE3D8, offset: 0xE3D8, size: 0x8, addend: 0x0, symName: __ZNSt3__124__put_character_sequenceB7v160006IcNS_11char_traitsIcEEEERNS_13basic_ostreamIT_T0_EES7_PKS4_m, symObjAddr: 0x3308, symBinAddr: 0x100005BA8, symSize: 0x1EC }
  - { offsetInCU: 0x115A9, offset: 0x115A9, size: 0x8, addend: 0x0, symName: __ZNSt3__1lsB7v160006INS_11char_traitsIcEEEERNS_13basic_ostreamIcT_EES6_PKc, symObjAddr: 0xB24, symBinAddr: 0x1000033C4, symSize: 0x48 }
  - { offsetInCU: 0x115EF, offset: 0x115EF, size: 0x8, addend: 0x0, symName: __ZNSt3__14endlB7v160006IcNS_11char_traitsIcEEEERNS_13basic_ostreamIT_T0_EES7_, symObjAddr: 0xB98, symBinAddr: 0x100003438, symSize: 0x58 }
  - { offsetInCU: 0x1162F, offset: 0x1162F, size: 0x8, addend: 0x0, symName: __ZNSt3__1neB7v160006IPmEEbRKNS_11__wrap_iterIT_EES6_, symObjAddr: 0xC50, symBinAddr: 0x1000034F0, symSize: 0x34 }
  - { offsetInCU: 0x11672, offset: 0x11672, size: 0x8, addend: 0x0, symName: __ZNSt3__1plB7v160006IcNS_11char_traitsIcEENS_9allocatorIcEEEENS_12basic_stringIT_T0_T1_EEOS9_PKS6_, symObjAddr: 0xD80, symBinAddr: 0x100003620, symSize: 0x40 }
  - { offsetInCU: 0x116CA, offset: 0x116CA, size: 0x8, addend: 0x0, symName: __ZNSt3__1plB7v160006IcNS_11char_traitsIcEENS_9allocatorIcEEEENS_12basic_stringIT_T0_T1_EEPKS6_OS9_, symObjAddr: 0xDC0, symBinAddr: 0x100003660, symSize: 0x44 }
  - { offsetInCU: 0x1172D, offset: 0x1172D, size: 0x8, addend: 0x0, symName: __ZNSt3__122__make_exception_guardB7v160006INS_6vectorImNS_9allocatorImEEE16__destroy_vectorEEENS_28__exception_guard_exceptionsIT_EES7_, symObjAddr: 0x12F4, symBinAddr: 0x100003B94, symSize: 0x40 }
  - { offsetInCU: 0x11762, offset: 0x11762, size: 0x8, addend: 0x0, symName: __ZNSt3__119__debug_db_insert_cB7v160006INS_6vectorImNS_9allocatorImEEEEEEvPT_, symObjAddr: 0x1368, symBinAddr: 0x100003C08, symSize: 0x10 }
  - { offsetInCU: 0x11793, offset: 0x11793, size: 0x8, addend: 0x0, symName: __ZNSt3__119__allocate_at_leastB7v160006INS_9allocatorImEEEENS_19__allocation_resultINS_16allocator_traitsIT_E7pointerEEERS5_m, symObjAddr: 0x1704, symBinAddr: 0x100003FA4, symSize: 0x40 }
  - { offsetInCU: 0x117D6, offset: 0x117D6, size: 0x8, addend: 0x0, symName: __ZNSt3__13minB7v160006ImEERKT_S3_S3_, symObjAddr: 0x1840, symBinAddr: 0x1000040E0, symSize: 0x2C }
  - { offsetInCU: 0x11A03, offset: 0x11A03, size: 0x8, addend: 0x0, symName: __ZNSt3__13minB7v160006ImNS_6__lessImmEEEERKT_S5_S5_T0_, symObjAddr: 0x18DC, symBinAddr: 0x10000417C, symSize: 0x54 }
  - { offsetInCU: 0x11C84, offset: 0x11C84, size: 0x8, addend: 0x0, symName: __ZNSt3__120__throw_length_errorB7v160006EPKc, symObjAddr: 0x19C0, symBinAddr: 0x100004260, symSize: 0x64 }
  - { offsetInCU: 0x11CAC, offset: 0x11CAC, size: 0x8, addend: 0x0, symName: __ZNSt3__117__libcpp_allocateB7v160006Emm, symObjAddr: 0x1B30, symBinAddr: 0x1000043D0, symSize: 0x60 }
  - { offsetInCU: 0x11D06, offset: 0x11D06, size: 0x8, addend: 0x0, symName: __ZNSt3__124__is_overaligned_for_newB7v160006Em, symObjAddr: 0x1B90, symBinAddr: 0x100004430, symSize: 0x20 }
  - { offsetInCU: 0x11D34, offset: 0x11D34, size: 0x8, addend: 0x0, symName: __ZNSt3__121__libcpp_operator_newB7v160006IJmSt11align_val_tEEEPvDpT_, symObjAddr: 0x1BB0, symBinAddr: 0x100004450, symSize: 0x2C }
  - { offsetInCU: 0x11D81, offset: 0x11D81, size: 0x8, addend: 0x0, symName: __ZNSt3__121__libcpp_operator_newB7v160006IJmEEEPvDpT_, symObjAddr: 0x1BDC, symBinAddr: 0x10000447C, symSize: 0x24 }
  - { offsetInCU: 0x11DBA, offset: 0x11DBA, size: 0x8, addend: 0x0, symName: __ZNSt3__112__to_addressB7v160006ImEEPT_S2_, symObjAddr: 0x1CF8, symBinAddr: 0x100004598, symSize: 0x14 }
  - { offsetInCU: 0x11DEF, offset: 0x11DEF, size: 0x8, addend: 0x0, symName: __ZNSt3__130__uninitialized_allocator_copyB7v160006INS_9allocatorImEEmmLPv0EEEPT0_RT_PKS4_S9_S5_, symObjAddr: 0x1DA8, symBinAddr: 0x100004648, symSize: 0x38 }
  - { offsetInCU: 0x11E67, offset: 0x11E67, size: 0x8, addend: 0x0, symName: __ZNSt3__14copyB7v160006IPKmPmEET0_T_S5_S4_, symObjAddr: 0x1E50, symBinAddr: 0x1000046F0, symSize: 0x40 }
  - { offsetInCU: 0x11EC1, offset: 0x11EC1, size: 0x8, addend: 0x0, symName: __ZNSt3__16__copyB7v160006INS_17_ClassicAlgPolicyEPKmS3_PmEENS_4pairIT0_T2_EES6_T1_S7_, symObjAddr: 0x1E90, symBinAddr: 0x100004730, symSize: 0x44 }
  - { offsetInCU: 0x11F2D, offset: 0x11F2D, size: 0x8, addend: 0x0, symName: __ZNSt3__123__dispatch_copy_or_moveB7v160006INS_17_ClassicAlgPolicyENS_11__copy_loopIS1_EENS_14__copy_trivialEPKmS6_PmEENS_4pairIT2_T4_EES9_T3_SA_, symObjAddr: 0x1ED4, symBinAddr: 0x100004774, symSize: 0x44 }
  - { offsetInCU: 0x11FAB, offset: 0x11FAB, size: 0x8, addend: 0x0, symName: __ZNSt3__121__unwrap_and_dispatchB7v160006INS_10__overloadINS_11__copy_loopINS_17_ClassicAlgPolicyEEENS_14__copy_trivialEEEPKmS8_PmLi0EEENS_4pairIT0_T2_EESB_T1_SC_, symObjAddr: 0x1F18, symBinAddr: 0x1000047B8, symSize: 0xB4 }
  - { offsetInCU: 0x12039, offset: 0x12039, size: 0x8, addend: 0x0, symName: __ZNSt3__114__unwrap_rangeB7v160006IPKmS2_EEDaT_T0_, symObjAddr: 0x1FCC, symBinAddr: 0x10000486C, symSize: 0x3C }
  - { offsetInCU: 0x121CE, offset: 0x121CE, size: 0x8, addend: 0x0, symName: __ZNSt3__113__unwrap_iterB7v160006IPmNS_18__unwrap_iter_implIS1_Lb1EEELi0EEEDTclsrT0_8__unwrapclsr3stdE7declvalIT_EEEES5_, symObjAddr: 0x2050, symBinAddr: 0x1000048F0, symSize: 0x24 }
  - { offsetInCU: 0x12212, offset: 0x12212, size: 0x8, addend: 0x0, symName: __ZNSt3__19make_pairB7v160006IPKmPmEENS_4pairINS_18__unwrap_ref_decayIT_E4typeENS5_IT0_E4typeEEEOS6_OS9_, symObjAddr: 0x2074, symBinAddr: 0x100004914, symSize: 0x38 }
  - { offsetInCU: 0x12261, offset: 0x12261, size: 0x8, addend: 0x0, symName: __ZNSt3__114__rewrap_rangeB7v160006IPKmS2_S2_EET0_S3_T1_, symObjAddr: 0x20AC, symBinAddr: 0x10000494C, symSize: 0x2C }
  - { offsetInCU: 0x122B6, offset: 0x122B6, size: 0x8, addend: 0x0, symName: __ZNSt3__113__rewrap_iterB7v160006IPmS1_NS_18__unwrap_iter_implIS1_Lb1EEEEET_S4_T0_, symObjAddr: 0x20D8, symBinAddr: 0x100004978, symSize: 0x3C }
  - { offsetInCU: 0x12427, offset: 0x12427, size: 0x8, addend: 0x0, symName: __ZNSt3__113__unwrap_iterB7v160006IPKmNS_18__unwrap_iter_implIS2_Lb1EEELi0EEEDTclsrT0_8__unwrapclsr3stdE7declvalIT_EEEES6_, symObjAddr: 0x216C, symBinAddr: 0x100004A0C, symSize: 0x24 }
  - { offsetInCU: 0x124BE, offset: 0x124BE, size: 0x8, addend: 0x0, symName: __ZNSt3__112__to_addressB7v160006IKmEEPT_S3_, symObjAddr: 0x21F0, symBinAddr: 0x100004A90, symSize: 0x14 }
  - { offsetInCU: 0x124F3, offset: 0x124F3, size: 0x8, addend: 0x0, symName: __ZNSt3__119__copy_trivial_implB7v160006IKmmEENS_4pairIPT_PT0_EES4_S4_S6_, symObjAddr: 0x2238, symBinAddr: 0x100004AD8, symSize: 0x84 }
  - { offsetInCU: 0x1255B, offset: 0x1255B, size: 0x8, addend: 0x0, symName: __ZNSt3__19make_pairB7v160006IRPKmPmEENS_4pairINS_18__unwrap_ref_decayIT_E4typeENS6_IT0_E4typeEEEOS7_OSA_, symObjAddr: 0x22BC, symBinAddr: 0x100004B5C, symSize: 0x38 }
  - { offsetInCU: 0x125FD, offset: 0x125FD, size: 0x8, addend: 0x0, symName: __ZNSt3__113__rewrap_iterB7v160006IPKmS2_NS_18__unwrap_iter_implIS2_Lb1EEEEET_S5_T0_, symObjAddr: 0x2424, symBinAddr: 0x100004CC4, symSize: 0x3C }
  - { offsetInCU: 0x12652, offset: 0x12652, size: 0x8, addend: 0x0, symName: __ZNSt3__118__debug_db_erase_cB7v160006INS_6vectorImNS_9allocatorImEEEEEEvPT_, symObjAddr: 0x26C4, symBinAddr: 0x100004F64, symSize: 0x10 }
  - { offsetInCU: 0x12683, offset: 0x12683, size: 0x8, addend: 0x0, symName: __ZNSt3__110destroy_atB7v160006ImLi0EEEvPT_, symObjAddr: 0x280C, symBinAddr: 0x1000050AC, symSize: 0x24 }
  - { offsetInCU: 0x126BA, offset: 0x126BA, size: 0x8, addend: 0x0, symName: __ZNSt3__112__destroy_atB7v160006ImLi0EEEvPT_, symObjAddr: 0x2830, symBinAddr: 0x1000050D0, symSize: 0x10 }
  - { offsetInCU: 0x126F1, offset: 0x126F1, size: 0x8, addend: 0x0, symName: __ZNSt3__119__libcpp_deallocateB7v160006EPvmm, symObjAddr: 0x2880, symBinAddr: 0x100005120, symSize: 0x60 }
  - { offsetInCU: 0x12756, offset: 0x12756, size: 0x8, addend: 0x0, symName: __ZNSt3__127__do_deallocate_handle_sizeB7v160006IJSt11align_val_tEEEvPvmDpT_, symObjAddr: 0x28E0, symBinAddr: 0x100005180, symSize: 0x30 }
  - { offsetInCU: 0x127A9, offset: 0x127A9, size: 0x8, addend: 0x0, symName: __ZNSt3__127__do_deallocate_handle_sizeB7v160006IJEEEvPvmDpT_, symObjAddr: 0x2910, symBinAddr: 0x1000051B0, symSize: 0x28 }
  - { offsetInCU: 0x127E7, offset: 0x127E7, size: 0x8, addend: 0x0, symName: __ZNSt3__124__libcpp_operator_deleteB7v160006IJPvSt11align_val_tEEEvDpT_, symObjAddr: 0x2938, symBinAddr: 0x1000051D8, symSize: 0x2C }
  - { offsetInCU: 0x12830, offset: 0x12830, size: 0x8, addend: 0x0, symName: __ZNSt3__124__libcpp_operator_deleteB7v160006IJPvEEEvDpT_, symObjAddr: 0x2964, symBinAddr: 0x100005204, symSize: 0x24 }
  - { offsetInCU: 0x12865, offset: 0x12865, size: 0x8, addend: 0x0, symName: __ZNSt3__1eqB7v160006IPmEEbRKNS_11__wrap_iterIT_EES6_, symObjAddr: 0x2A1C, symBinAddr: 0x1000052BC, symSize: 0x48 }
  - { offsetInCU: 0x128A8, offset: 0x128A8, size: 0x8, addend: 0x0, symName: __ZNSt3__119__debug_db_insert_cB7v160006INS_12basic_stringIcNS_11char_traitsIcEENS_9allocatorIcEEEEEEvPT_, symObjAddr: 0x2B80, symBinAddr: 0x100005420, symSize: 0x10 }
  - { offsetInCU: 0x128D9, offset: 0x128D9, size: 0x8, addend: 0x0, symName: __ZNSt3__118__constexpr_strlenB7v160006EPKc, symObjAddr: 0x2C4C, symBinAddr: 0x1000054EC, symSize: 0x24 }
  - { offsetInCU: 0x12905, offset: 0x12905, size: 0x8, addend: 0x0, symName: __ZNSt3__115__debug_db_swapB7v160006INS_12basic_stringIcNS_11char_traitsIcEENS_9allocatorIcEEEEEEvPT_S8_, symObjAddr: 0x2DA0, symBinAddr: 0x100005640, symSize: 0x14 }
  - { offsetInCU: 0x12960, offset: 0x12960, size: 0x8, addend: 0x0, symName: __ZNSt3__116__pad_and_outputB7v160006IcNS_11char_traitsIcEEEENS_19ostreambuf_iteratorIT_T0_EES6_PKS4_S8_S8_RNS_8ios_baseES4_, symObjAddr: 0x3510, symBinAddr: 0x100005DB0, symSize: 0x240 }
  - { offsetInCU: 0x12A2F, offset: 0x12A2F, size: 0x8, addend: 0x0, symName: __ZNSt3__112__to_addressB7v160006IcEEPT_S2_, symObjAddr: 0x395C, symBinAddr: 0x1000061FC, symSize: 0x14 }
  - { offsetInCU: 0x12A64, offset: 0x12A64, size: 0x8, addend: 0x0, symName: __ZNSt3__19use_facetB7v160006INS_5ctypeIcEEEERKT_RKNS_6localeE, symObjAddr: 0x3B64, symBinAddr: 0x100006404, symSize: 0x2C }
  - { offsetInCU: 0x12F57, offset: 0x12F57, size: 0x8, addend: 0x0, symName: __ZNSt3__112__to_addressB7v160006IKcEEPT_S3_, symObjAddr: 0x3E0C, symBinAddr: 0x1000066AC, symSize: 0x14 }
  - { offsetInCU: 0x12FBF, offset: 0x12FBF, size: 0x8, addend: 0x0, symName: __ZNSt3__113__countl_zeroB7v160006IjEEiT_, symObjAddr: 0x40F0, symBinAddr: 0x100006990, symSize: 0x54 }
  - { offsetInCU: 0x12FF4, offset: 0x12FF4, size: 0x8, addend: 0x0, symName: __ZNSt3__112__libcpp_clzB7v160006Ej, symObjAddr: 0x4588, symBinAddr: 0x100006E28, symSize: 0x18 }
  - { offsetInCU: 0x135BD, offset: 0x135BD, size: 0x8, addend: 0x0, symName: __ZSt28__throw_bad_array_new_lengthB7v160006v, symObjAddr: 0x1AFC, symBinAddr: 0x10000439C, symSize: 0x34 }
  - { offsetInCU: 0x140E6, offset: 0x140E6, size: 0x8, addend: 0x0, symName: __ZNKSt3__16chrono15__duration_castINS0_8durationIxNS_5ratioILl1ELl1000000000EEEEENS2_IxNS3_ILl1ELl1000EEEEENS3_ILl1ELl1000000EEELb1ELb0EEclB7v160006ERKS5_, symObjAddr: 0x2F70, symBinAddr: 0x100005810, symSize: 0x4C }
  - { offsetInCU: 0x1427A, offset: 0x1427A, size: 0x8, addend: 0x0, symName: __ZNSt3__124uniform_int_distributionIiEclINS_23mersenne_twister_engineIjLm32ELm624ELm397ELm31ELj2567483615ELm11ELj4294967295ELm7ELj2636928640ELm15ELj4022730752ELm18ELj1812433253EEEEEiRT_RKNS1_10param_typeE, symObjAddr: 0x3ED8, symBinAddr: 0x100006778, symSize: 0x188 }
  - { offsetInCU: 0x1434D, offset: 0x1434D, size: 0x8, addend: 0x0, symName: __ZNSt3__124uniform_int_distributionIiEclINS_13random_deviceEEEiRT_RKNS1_10param_typeE, symObjAddr: 0x45A8, symBinAddr: 0x100006E48, symSize: 0x188 }
  - { offsetInCU: 0x165AA, offset: 0x165AA, size: 0x8, addend: 0x0, symName: _main, symObjAddr: 0x0, symBinAddr: 0x1000028A0, symSize: 0x97C }
  - { offsetInCU: 0x16790, offset: 0x16790, size: 0x8, addend: 0x0, symName: __ZNSt3__16vectorImNS_9allocatorImEEEC1B7v160006ESt16initializer_listImE, symObjAddr: 0x97C, symBinAddr: 0x10000321C, symSize: 0x3C }
  - { offsetInCU: 0x1686E, offset: 0x1686E, size: 0x8, addend: 0x0, symName: __ZNSt3__114basic_ofstreamIcNS_11char_traitsIcEEEC1EPKcj, symObjAddr: 0x9B8, symBinAddr: 0x100003258, symSize: 0x16C }
  - { offsetInCU: 0x168B8, offset: 0x168B8, size: 0x8, addend: 0x0, symName: __ZNSt3__113basic_ostreamIcNS_11char_traitsIcEEElsB7v160006EPFRS3_S4_E, symObjAddr: 0xB6C, symBinAddr: 0x10000340C, symSize: 0x2C }
  - { offsetInCU: 0x168EC, offset: 0x168EC, size: 0x8, addend: 0x0, symName: __ZNSt3__16vectorImNS_9allocatorImEEE5beginB7v160006Ev, symObjAddr: 0xBF0, symBinAddr: 0x100003490, symSize: 0x30 }
  - { offsetInCU: 0x16914, offset: 0x16914, size: 0x8, addend: 0x0, symName: __ZNSt3__16vectorImNS_9allocatorImEEE3endB7v160006Ev, symObjAddr: 0xC20, symBinAddr: 0x1000034C0, symSize: 0x30 }
  - { offsetInCU: 0x1693C, offset: 0x1693C, size: 0x8, addend: 0x0, symName: __ZNKSt3__111__wrap_iterIPmEdeB7v160006Ev, symObjAddr: 0xC84, symBinAddr: 0x100003524, symSize: 0x18 }
  - { offsetInCU: 0x16962, offset: 0x16962, size: 0x8, addend: 0x0, symName: __ZNSt3__113random_deviceC1Ev, symObjAddr: 0xC9C, symBinAddr: 0x10000353C, symSize: 0x74 }
  - { offsetInCU: 0x1698C, offset: 0x1698C, size: 0x8, addend: 0x0, symName: __ZNSt3__123mersenne_twister_engineIjLm32ELm624ELm397ELm31ELj2567483615ELm11ELj4294967295ELm7ELj2636928640ELm15ELj4022730752ELm18ELj1812433253EEC1B7v160006Ej, symObjAddr: 0xD10, symBinAddr: 0x1000035B0, symSize: 0x34 }
  - { offsetInCU: 0x169C4, offset: 0x169C4, size: 0x8, addend: 0x0, symName: __ZNSt3__124uniform_int_distributionIiEC1Eii, symObjAddr: 0xD44, symBinAddr: 0x1000035E4, symSize: 0x3C }
  - { offsetInCU: 0x16A0A, offset: 0x16A0A, size: 0x8, addend: 0x0, symName: __ZNSt3__114basic_ofstreamIcNS_11char_traitsIcEEEC1ERKNS_12basic_stringIcS2_NS_9allocatorIcEEEEj, symObjAddr: 0xE04, symBinAddr: 0x1000036A4, symSize: 0x16C }
  - { offsetInCU: 0x16B20, offset: 0x16B20, size: 0x8, addend: 0x0, symName: __ZNK9Stopwatch7elapsedINSt3__16chrono8durationIxNS1_5ratioILl1ELl1000EEEEEEEDav, symObjAddr: 0xF70, symBinAddr: 0x100003810, symSize: 0xE0 }
  - { offsetInCU: 0x16B4F, offset: 0x16B4F, size: 0x8, addend: 0x0, symName: __ZNSt3__114basic_ofstreamIcNS_11char_traitsIcEEE5closeEv, symObjAddr: 0x1050, symBinAddr: 0x1000038F0, symSize: 0x58 }
  - { offsetInCU: 0x16B77, offset: 0x16B77, size: 0x8, addend: 0x0, symName: __ZNSt3__124uniform_int_distributionIiEclINS_23mersenne_twister_engineIjLm32ELm624ELm397ELm31ELj2567483615ELm11ELj4294967295ELm7ELj2636928640ELm15ELj4022730752ELm18ELj1812433253EEEEEiRT_, symObjAddr: 0x10A8, symBinAddr: 0x100003948, symSize: 0x30 }
  - { offsetInCU: 0x16BB4, offset: 0x16BB4, size: 0x8, addend: 0x0, symName: __ZNSt3__124uniform_int_distributionIiEclINS_13random_deviceEEEiRT_, symObjAddr: 0x10D8, symBinAddr: 0x100003978, symSize: 0x30 }
  - { offsetInCU: 0x16BF6, offset: 0x16BF6, size: 0x8, addend: 0x0, symName: __ZNSt3__114basic_ofstreamIcNS_11char_traitsIcEEED1Ev, symObjAddr: 0x1108, symBinAddr: 0x1000039A8, symSize: 0x40 }
  - { offsetInCU: 0x16C23, offset: 0x16C23, size: 0x8, addend: 0x0, symName: __ZNSt3__111__wrap_iterIPmEppB7v160006Ev, symObjAddr: 0x1148, symBinAddr: 0x1000039E8, symSize: 0x20 }
  - { offsetInCU: 0x16C49, offset: 0x16C49, size: 0x8, addend: 0x0, symName: __ZNSt3__16vectorImNS_9allocatorImEEED1B7v160006Ev, symObjAddr: 0x1168, symBinAddr: 0x100003A08, symSize: 0x2C }
  - { offsetInCU: 0x16C73, offset: 0x16C73, size: 0x8, addend: 0x0, symName: __ZNSt3__16vectorImNS_9allocatorImEEEC2B7v160006ESt16initializer_listImE, symObjAddr: 0x1194, symBinAddr: 0x100003A34, symSize: 0x124 }
  - { offsetInCU: 0x16CD0, offset: 0x16CD0, size: 0x8, addend: 0x0, symName: __ZNSt3__117__compressed_pairIPmNS_9allocatorImEEEC1B7v160006IDnNS_18__default_init_tagEEEOT_OT0_, symObjAddr: 0x12B8, symBinAddr: 0x100003B58, symSize: 0x3C }
  - { offsetInCU: 0x16D28, offset: 0x16D28, size: 0x8, addend: 0x0, symName: __ZNSt3__16vectorImNS_9allocatorImEEE16__destroy_vectorC1ERS3_, symObjAddr: 0x1334, symBinAddr: 0x100003BD4, symSize: 0x34 }
  - { offsetInCU: 0x16D61, offset: 0x16D61, size: 0x8, addend: 0x0, symName: __ZNKSt16initializer_listImE4sizeB7v160006Ev, symObjAddr: 0x1378, symBinAddr: 0x100003C18, symSize: 0x18 }
  - { offsetInCU: 0x16D87, offset: 0x16D87, size: 0x8, addend: 0x0, symName: __ZNSt3__16vectorImNS_9allocatorImEEE11__vallocateB7v160006Em, symObjAddr: 0x1390, symBinAddr: 0x100003C30, symSize: 0xAC }
  - { offsetInCU: 0x16DCB, offset: 0x16DCB, size: 0x8, addend: 0x0, symName: __ZNSt3__16vectorImNS_9allocatorImEEE18__construct_at_endIPKmLi0EEEvT_S7_m, symObjAddr: 0x143C, symBinAddr: 0x100003CDC, symSize: 0x8C }
  - { offsetInCU: 0x16E3E, offset: 0x16E3E, size: 0x8, addend: 0x0, symName: __ZNKSt16initializer_listImE5beginB7v160006Ev, symObjAddr: 0x14C8, symBinAddr: 0x100003D68, symSize: 0x18 }
  - { offsetInCU: 0x16E64, offset: 0x16E64, size: 0x8, addend: 0x0, symName: __ZNKSt16initializer_listImE3endB7v160006Ev, symObjAddr: 0x14E0, symBinAddr: 0x100003D80, symSize: 0x20 }
  - { offsetInCU: 0x16E8A, offset: 0x16E8A, size: 0x8, addend: 0x0, symName: __ZNSt3__128__exception_guard_exceptionsINS_6vectorImNS_9allocatorImEEE16__destroy_vectorEE10__completeB7v160006Ev, symObjAddr: 0x1500, symBinAddr: 0x100003DA0, symSize: 0x1C }
  - { offsetInCU: 0x16EB0, offset: 0x16EB0, size: 0x8, addend: 0x0, symName: __ZNSt3__128__exception_guard_exceptionsINS_6vectorImNS_9allocatorImEEE16__destroy_vectorEED1B7v160006Ev, symObjAddr: 0x151C, symBinAddr: 0x100003DBC, symSize: 0x2C }
  - { offsetInCU: 0x16EDA, offset: 0x16EDA, size: 0x8, addend: 0x0, symName: __ZNSt3__117__compressed_pairIPmNS_9allocatorImEEEC2B7v160006IDnNS_18__default_init_tagEEEOT_OT0_, symObjAddr: 0x1548, symBinAddr: 0x100003DE8, symSize: 0x40 }
  - { offsetInCU: 0x16F32, offset: 0x16F32, size: 0x8, addend: 0x0, symName: __ZNSt3__122__compressed_pair_elemIPmLi0ELb0EEC2B7v160006IDnvEEOT_, symObjAddr: 0x1588, symBinAddr: 0x100003E28, symSize: 0x1C }
  - { offsetInCU: 0x16F74, offset: 0x16F74, size: 0x8, addend: 0x0, symName: __ZNSt3__122__compressed_pair_elemINS_9allocatorImEELi1ELb1EEC2B7v160006ENS_18__default_init_tagE, symObjAddr: 0x15A4, symBinAddr: 0x100003E44, symSize: 0x2C }
  - { offsetInCU: 0x16FA9, offset: 0x16FA9, size: 0x8, addend: 0x0, symName: __ZNSt3__19allocatorImEC2B7v160006Ev, symObjAddr: 0x15D0, symBinAddr: 0x100003E70, symSize: 0x2C }
  - { offsetInCU: 0x16FD3, offset: 0x16FD3, size: 0x8, addend: 0x0, symName: __ZNSt3__116__non_trivial_ifILb1ENS_9allocatorImEEEC2B7v160006Ev, symObjAddr: 0x15FC, symBinAddr: 0x100003E9C, symSize: 0x14 }
  - { offsetInCU: 0x16FFD, offset: 0x16FFD, size: 0x8, addend: 0x0, symName: __ZNSt3__128__exception_guard_exceptionsINS_6vectorImNS_9allocatorImEEE16__destroy_vectorEEC1B7v160006ES5_, symObjAddr: 0x1610, symBinAddr: 0x100003EB0, symSize: 0x34 }
  - { offsetInCU: 0x17035, offset: 0x17035, size: 0x8, addend: 0x0, symName: __ZNSt3__128__exception_guard_exceptionsINS_6vectorImNS_9allocatorImEEE16__destroy_vectorEEC2B7v160006ES5_, symObjAddr: 0x1644, symBinAddr: 0x100003EE4, symSize: 0x24 }
  - { offsetInCU: 0x1706D, offset: 0x1706D, size: 0x8, addend: 0x0, symName: __ZNSt3__16vectorImNS_9allocatorImEEE16__destroy_vectorC2ERS3_, symObjAddr: 0x1668, symBinAddr: 0x100003F08, symSize: 0x20 }
  - { offsetInCU: 0x170A6, offset: 0x170A6, size: 0x8, addend: 0x0, symName: __ZNKSt3__16vectorImNS_9allocatorImEEE8max_sizeEv, symObjAddr: 0x1688, symBinAddr: 0x100003F28, symSize: 0x60 }
  - { offsetInCU: 0x170CE, offset: 0x170CE, size: 0x8, addend: 0x0, symName: __ZNKSt3__16vectorImNS_9allocatorImEEE20__throw_length_errorB7v160006Ev, symObjAddr: 0x16E8, symBinAddr: 0x100003F88, symSize: 0x1C }
  - { offsetInCU: 0x170F4, offset: 0x170F4, size: 0x8, addend: 0x0, symName: __ZNSt3__16vectorImNS_9allocatorImEEE7__allocB7v160006Ev, symObjAddr: 0x1744, symBinAddr: 0x100003FE4, symSize: 0x28 }
  - { offsetInCU: 0x1711A, offset: 0x1711A, size: 0x8, addend: 0x0, symName: __ZNSt3__16vectorImNS_9allocatorImEEE9__end_capB7v160006Ev, symObjAddr: 0x176C, symBinAddr: 0x10000400C, symSize: 0x28 }
  - { offsetInCU: 0x17140, offset: 0x17140, size: 0x8, addend: 0x0, symName: __ZNKSt3__16vectorImNS_9allocatorImEEE14__annotate_newB7v160006Em, symObjAddr: 0x1794, symBinAddr: 0x100004034, symSize: 0xAC }
  - { offsetInCU: 0x17180, offset: 0x17180, size: 0x8, addend: 0x0, symName: __ZNSt3__116allocator_traitsINS_9allocatorImEEE8max_sizeB7v160006IS2_vvEEmRKS2_, symObjAddr: 0x186C, symBinAddr: 0x10000410C, symSize: 0x28 }
  - { offsetInCU: 0x171AB, offset: 0x171AB, size: 0x8, addend: 0x0, symName: __ZNKSt3__16vectorImNS_9allocatorImEEE7__allocB7v160006Ev, symObjAddr: 0x1894, symBinAddr: 0x100004134, symSize: 0x28 }
  - { offsetInCU: 0x171D1, offset: 0x171D1, size: 0x8, addend: 0x0, symName: __ZNSt3__114numeric_limitsIlE3maxB7v160006Ev, symObjAddr: 0x18BC, symBinAddr: 0x10000415C, symSize: 0x14 }
  - { offsetInCU: 0x171F5, offset: 0x171F5, size: 0x8, addend: 0x0, symName: __ZNKSt3__16__lessImmEclB7v160006ERKmS3_, symObjAddr: 0x1930, symBinAddr: 0x1000041D0, symSize: 0x34 }
  - { offsetInCU: 0x17237, offset: 0x17237, size: 0x8, addend: 0x0, symName: __ZNSt3__114numeric_limitsImE3maxB7v160006Ev, symObjAddr: 0x1964, symBinAddr: 0x100004204, symSize: 0x14 }
  - { offsetInCU: 0x1724B, offset: 0x1724B, size: 0x8, addend: 0x0, symName: __ZNSt3__123__libcpp_numeric_limitsImLb1EE3maxB7v160006Ev, symObjAddr: 0x1978, symBinAddr: 0x100004218, symSize: 0x8 }
  - { offsetInCU: 0x1725F, offset: 0x1725F, size: 0x8, addend: 0x0, symName: __ZNKSt3__117__compressed_pairIPmNS_9allocatorImEEE6secondB7v160006Ev, symObjAddr: 0x1980, symBinAddr: 0x100004220, symSize: 0x24 }
  - { offsetInCU: 0x17285, offset: 0x17285, size: 0x8, addend: 0x0, symName: __ZNKSt3__122__compressed_pair_elemINS_9allocatorImEELi1ELb1EE5__getB7v160006Ev, symObjAddr: 0x19A4, symBinAddr: 0x100004244, symSize: 0x14 }
  - { offsetInCU: 0x172AB, offset: 0x172AB, size: 0x8, addend: 0x0, symName: __ZNSt3__123__libcpp_numeric_limitsIlLb1EE3maxB7v160006Ev, symObjAddr: 0x19B8, symBinAddr: 0x100004258, symSize: 0x8 }
  - { offsetInCU: 0x172BF, offset: 0x172BF, size: 0x8, addend: 0x0, symName: __ZNSt12length_errorC1B7v160006EPKc, symObjAddr: 0x1A24, symBinAddr: 0x1000042C4, symSize: 0x34 }
  - { offsetInCU: 0x172F7, offset: 0x172F7, size: 0x8, addend: 0x0, symName: __ZNSt12length_errorC2B7v160006EPKc, symObjAddr: 0x1A58, symBinAddr: 0x1000042F8, symSize: 0x4C }
  - { offsetInCU: 0x1732F, offset: 0x1732F, size: 0x8, addend: 0x0, symName: __ZNSt3__19allocatorImE8allocateB7v160006Em, symObjAddr: 0x1AA4, symBinAddr: 0x100004344, symSize: 0x58 }
  - { offsetInCU: 0x17363, offset: 0x17363, size: 0x8, addend: 0x0, symName: __ZNSt3__117__compressed_pairIPmNS_9allocatorImEEE6secondB7v160006Ev, symObjAddr: 0x1C00, symBinAddr: 0x1000044A0, symSize: 0x24 }
  - { offsetInCU: 0x17389, offset: 0x17389, size: 0x8, addend: 0x0, symName: __ZNSt3__122__compressed_pair_elemINS_9allocatorImEELi1ELb1EE5__getB7v160006Ev, symObjAddr: 0x1C24, symBinAddr: 0x1000044C4, symSize: 0x14 }
  - { offsetInCU: 0x173AF, offset: 0x173AF, size: 0x8, addend: 0x0, symName: __ZNSt3__117__compressed_pairIPmNS_9allocatorImEEE5firstB7v160006Ev, symObjAddr: 0x1C38, symBinAddr: 0x1000044D8, symSize: 0x24 }
  - { offsetInCU: 0x173D5, offset: 0x173D5, size: 0x8, addend: 0x0, symName: __ZNSt3__122__compressed_pair_elemIPmLi0ELb0EE5__getB7v160006Ev, symObjAddr: 0x1C5C, symBinAddr: 0x1000044FC, symSize: 0x14 }
  - { offsetInCU: 0x173FB, offset: 0x173FB, size: 0x8, addend: 0x0, symName: __ZNKSt3__16vectorImNS_9allocatorImEEE31__annotate_contiguous_containerB7v160006EPKvS5_S5_S5_, symObjAddr: 0x1C70, symBinAddr: 0x100004510, symSize: 0x20 }
  - { offsetInCU: 0x1744D, offset: 0x1744D, size: 0x8, addend: 0x0, symName: __ZNKSt3__16vectorImNS_9allocatorImEEE4dataB7v160006Ev, symObjAddr: 0x1C90, symBinAddr: 0x100004530, symSize: 0x28 }
  - { offsetInCU: 0x17473, offset: 0x17473, size: 0x8, addend: 0x0, symName: __ZNKSt3__16vectorImNS_9allocatorImEEE8capacityB7v160006Ev, symObjAddr: 0x1CB8, symBinAddr: 0x100004558, symSize: 0x40 }
  - { offsetInCU: 0x17499, offset: 0x17499, size: 0x8, addend: 0x0, symName: __ZNKSt3__16vectorImNS_9allocatorImEEE9__end_capB7v160006Ev, symObjAddr: 0x1D0C, symBinAddr: 0x1000045AC, symSize: 0x28 }
  - { offsetInCU: 0x174BF, offset: 0x174BF, size: 0x8, addend: 0x0, symName: __ZNKSt3__117__compressed_pairIPmNS_9allocatorImEEE5firstB7v160006Ev, symObjAddr: 0x1D34, symBinAddr: 0x1000045D4, symSize: 0x24 }
  - { offsetInCU: 0x174E5, offset: 0x174E5, size: 0x8, addend: 0x0, symName: __ZNKSt3__122__compressed_pair_elemIPmLi0ELb0EE5__getB7v160006Ev, symObjAddr: 0x1D58, symBinAddr: 0x1000045F8, symSize: 0x14 }
  - { offsetInCU: 0x17526, offset: 0x17526, size: 0x8, addend: 0x0, symName: __ZNSt3__16vectorImNS_9allocatorImEEE21_ConstructTransactionC1B7v160006ERS3_m, symObjAddr: 0x1D6C, symBinAddr: 0x10000460C, symSize: 0x3C }
  - { offsetInCU: 0x1756E, offset: 0x1756E, size: 0x8, addend: 0x0, symName: __ZNSt3__16vectorImNS_9allocatorImEEE21_ConstructTransactionD1B7v160006Ev, symObjAddr: 0x1DE0, symBinAddr: 0x100004680, symSize: 0x2C }
  - { offsetInCU: 0x17598, offset: 0x17598, size: 0x8, addend: 0x0, symName: __ZNSt3__16vectorImNS_9allocatorImEEE21_ConstructTransactionC2B7v160006ERS3_m, symObjAddr: 0x1E0C, symBinAddr: 0x1000046AC, symSize: 0x44 }
  - { offsetInCU: 0x17606, offset: 0x17606, size: 0x8, addend: 0x0, symName: __ZNKSt3__114__copy_trivialclB7v160006IKmmLi0EEENS_4pairIPT_PT0_EES5_S5_S7_, symObjAddr: 0x2008, symBinAddr: 0x1000048A8, symSize: 0x48 }
  - { offsetInCU: 0x1768A, offset: 0x1768A, size: 0x8, addend: 0x0, symName: __ZNSt3__119__unwrap_range_implIPKmS2_E8__unwrapB7v160006ES2_S2_, symObjAddr: 0x2114, symBinAddr: 0x1000049B4, symSize: 0x58 }
  - { offsetInCU: 0x176C1, offset: 0x176C1, size: 0x8, addend: 0x0, symName: __ZNSt3__14pairIPKmS2_EC1B7v160006IS2_S2_LPv0EEEOT_OT0_, symObjAddr: 0x2190, symBinAddr: 0x100004A30, symSize: 0x3C }
  - { offsetInCU: 0x1771F, offset: 0x1771F, size: 0x8, addend: 0x0, symName: __ZNSt3__118__unwrap_iter_implIPKmLb1EE8__unwrapB7v160006ES2_, symObjAddr: 0x21CC, symBinAddr: 0x100004A6C, symSize: 0x24 }
  - { offsetInCU: 0x17742, offset: 0x17742, size: 0x8, addend: 0x0, symName: __ZNSt3__14pairIPKmS2_EC2B7v160006IS2_S2_LPv0EEEOT_OT0_, symObjAddr: 0x2204, symBinAddr: 0x100004AA4, symSize: 0x34 }
  - { offsetInCU: 0x177AC, offset: 0x177AC, size: 0x8, addend: 0x0, symName: __ZNSt3__14pairIPKmPmEC1B7v160006IRS2_S3_LPv0EEEOT_OT0_, symObjAddr: 0x22F4, symBinAddr: 0x100004B94, symSize: 0x3C }
  - { offsetInCU: 0x1780A, offset: 0x1780A, size: 0x8, addend: 0x0, symName: __ZNSt3__14pairIPKmPmEC2B7v160006IRS2_S3_LPv0EEEOT_OT0_, symObjAddr: 0x2330, symBinAddr: 0x100004BD0, symSize: 0x34 }
  - { offsetInCU: 0x17868, offset: 0x17868, size: 0x8, addend: 0x0, symName: __ZNSt3__118__unwrap_iter_implIPmLb1EE8__unwrapB7v160006ES1_, symObjAddr: 0x2364, symBinAddr: 0x100004C04, symSize: 0x24 }
  - { offsetInCU: 0x1788B, offset: 0x1788B, size: 0x8, addend: 0x0, symName: __ZNSt3__14pairIPKmPmEC1B7v160006IS2_S3_LPv0EEEOT_OT0_, symObjAddr: 0x2388, symBinAddr: 0x100004C28, symSize: 0x3C }
  - { offsetInCU: 0x178E9, offset: 0x178E9, size: 0x8, addend: 0x0, symName: __ZNSt3__14pairIPKmPmEC2B7v160006IS2_S3_LPv0EEEOT_OT0_, symObjAddr: 0x23C4, symBinAddr: 0x100004C64, symSize: 0x34 }
  - { offsetInCU: 0x17947, offset: 0x17947, size: 0x8, addend: 0x0, symName: __ZNSt3__119__unwrap_range_implIPKmS2_E8__rewrapB7v160006ES2_S2_, symObjAddr: 0x23F8, symBinAddr: 0x100004C98, symSize: 0x2C }
  - { offsetInCU: 0x17978, offset: 0x17978, size: 0x8, addend: 0x0, symName: __ZNSt3__118__unwrap_iter_implIPKmLb1EE8__rewrapB7v160006ES2_S2_, symObjAddr: 0x2460, symBinAddr: 0x100004D00, symSize: 0x50 }
  - { offsetInCU: 0x179A9, offset: 0x179A9, size: 0x8, addend: 0x0, symName: __ZNSt3__118__unwrap_iter_implIPmLb1EE8__rewrapB7v160006ES1_S1_, symObjAddr: 0x24B0, symBinAddr: 0x100004D50, symSize: 0x50 }
  - { offsetInCU: 0x179DA, offset: 0x179DA, size: 0x8, addend: 0x0, symName: __ZNSt3__16vectorImNS_9allocatorImEEE21_ConstructTransactionD2B7v160006Ev, symObjAddr: 0x2500, symBinAddr: 0x100004DA0, symSize: 0x20 }
  - { offsetInCU: 0x17A04, offset: 0x17A04, size: 0x8, addend: 0x0, symName: __ZNSt3__128__exception_guard_exceptionsINS_6vectorImNS_9allocatorImEEE16__destroy_vectorEED2B7v160006Ev, symObjAddr: 0x2520, symBinAddr: 0x100004DC0, symSize: 0x50 }
  - { offsetInCU: 0x17A2E, offset: 0x17A2E, size: 0x8, addend: 0x0, symName: __ZNSt3__16vectorImNS_9allocatorImEEE16__destroy_vectorclB7v160006Ev, symObjAddr: 0x2570, symBinAddr: 0x100004E10, symSize: 0x9C }
  - { offsetInCU: 0x17A54, offset: 0x17A54, size: 0x8, addend: 0x0, symName: __ZNKSt3__16vectorImNS_9allocatorImEEE17__annotate_deleteB7v160006Ev, symObjAddr: 0x260C, symBinAddr: 0x100004EAC, symSize: 0xB8 }
  - { offsetInCU: 0x17A7A, offset: 0x17A7A, size: 0x8, addend: 0x0, symName: __ZNSt3__16vectorImNS_9allocatorImEEE7__clearB7v160006Ev, symObjAddr: 0x26D4, symBinAddr: 0x100004F74, symSize: 0x28 }
  - { offsetInCU: 0x17AA0, offset: 0x17AA0, size: 0x8, addend: 0x0, symName: __ZNSt3__116allocator_traitsINS_9allocatorImEEE10deallocateB7v160006ERS2_Pmm, symObjAddr: 0x26FC, symBinAddr: 0x100004F9C, symSize: 0x34 }
  - { offsetInCU: 0x17AE2, offset: 0x17AE2, size: 0x8, addend: 0x0, symName: __ZNKSt3__16vectorImNS_9allocatorImEEE4sizeB7v160006Ev, symObjAddr: 0x2730, symBinAddr: 0x100004FD0, symSize: 0x28 }
  - { offsetInCU: 0x17B08, offset: 0x17B08, size: 0x8, addend: 0x0, symName: __ZNSt3__16vectorImNS_9allocatorImEEE22__base_destruct_at_endB7v160006EPm, symObjAddr: 0x2758, symBinAddr: 0x100004FF8, symSize: 0x8C }
  - { offsetInCU: 0x17B4C, offset: 0x17B4C, size: 0x8, addend: 0x0, symName: __ZNSt3__116allocator_traitsINS_9allocatorImEEE7destroyB7v160006ImvvEEvRS2_PT_, symObjAddr: 0x27E4, symBinAddr: 0x100005084, symSize: 0x28 }
  - { offsetInCU: 0x17B86, offset: 0x17B86, size: 0x8, addend: 0x0, symName: __ZNSt3__19allocatorImE10deallocateB7v160006EPmm, symObjAddr: 0x2840, symBinAddr: 0x1000050E0, symSize: 0x40 }
  - { offsetInCU: 0x17BC8, offset: 0x17BC8, size: 0x8, addend: 0x0, symName: __ZNSt3__16vectorImNS_9allocatorImEEE11__make_iterB7v160006EPm, symObjAddr: 0x2988, symBinAddr: 0x100005228, symSize: 0x34 }
  - { offsetInCU: 0x17BFD, offset: 0x17BFD, size: 0x8, addend: 0x0, symName: __ZNSt3__111__wrap_iterIPmEC1B7v160006EPKvS1_, symObjAddr: 0x29BC, symBinAddr: 0x10000525C, symSize: 0x3C }
  - { offsetInCU: 0x17C43, offset: 0x17C43, size: 0x8, addend: 0x0, symName: __ZNSt3__111__wrap_iterIPmEC2B7v160006EPKvS1_, symObjAddr: 0x29F8, symBinAddr: 0x100005298, symSize: 0x24 }
  - { offsetInCU: 0x17C89, offset: 0x17C89, size: 0x8, addend: 0x0, symName: __ZNKSt3__111__wrap_iterIPmE4baseB7v160006Ev, symObjAddr: 0x2A64, symBinAddr: 0x100005304, symSize: 0x18 }
  - { offsetInCU: 0x17CB4, offset: 0x17CB4, size: 0x8, addend: 0x0, symName: __ZNSt3__112basic_stringIcNS_11char_traitsIcEENS_9allocatorIcEEEC1B7v160006IDnEEPKc, symObjAddr: 0x2A7C, symBinAddr: 0x10000531C, symSize: 0x34 }
  - { offsetInCU: 0x17CF2, offset: 0x17CF2, size: 0x8, addend: 0x0, symName: __ZNSt3__112basic_stringIcNS_11char_traitsIcEENS_9allocatorIcEEEC2B7v160006IDnEEPKc, symObjAddr: 0x2AB0, symBinAddr: 0x100005350, symSize: 0x60 }
  - { offsetInCU: 0x17D30, offset: 0x17D30, size: 0x8, addend: 0x0, symName: __ZNSt3__117__compressed_pairINS_12basic_stringIcNS_11char_traitsIcEENS_9allocatorIcEEE5__repES5_EC1B7v160006INS_18__default_init_tagESA_EEOT_OT0_, symObjAddr: 0x2B10, symBinAddr: 0x1000053B0, symSize: 0x3C }
  - { offsetInCU: 0x17D88, offset: 0x17D88, size: 0x8, addend: 0x0, symName: __ZNSt3__111char_traitsIcE6lengthEPKc, symObjAddr: 0x2B4C, symBinAddr: 0x1000053EC, symSize: 0x34 }
  - { offsetInCU: 0x17DAB, offset: 0x17DAB, size: 0x8, addend: 0x0, symName: __ZNSt3__117__compressed_pairINS_12basic_stringIcNS_11char_traitsIcEENS_9allocatorIcEEE5__repES5_EC2B7v160006INS_18__default_init_tagESA_EEOT_OT0_, symObjAddr: 0x2B90, symBinAddr: 0x100005430, symSize: 0x3C }
  - { offsetInCU: 0x17E03, offset: 0x17E03, size: 0x8, addend: 0x0, symName: __ZNSt3__122__compressed_pair_elemINS_12basic_stringIcNS_11char_traitsIcEENS_9allocatorIcEEE5__repELi0ELb0EEC2B7v160006ENS_18__default_init_tagE, symObjAddr: 0x2BCC, symBinAddr: 0x10000546C, symSize: 0x14 }
  - { offsetInCU: 0x17E38, offset: 0x17E38, size: 0x8, addend: 0x0, symName: __ZNSt3__122__compressed_pair_elemINS_9allocatorIcEELi1ELb1EEC2B7v160006ENS_18__default_init_tagE, symObjAddr: 0x2BE0, symBinAddr: 0x100005480, symSize: 0x2C }
  - { offsetInCU: 0x17E6D, offset: 0x17E6D, size: 0x8, addend: 0x0, symName: __ZNSt3__19allocatorIcEC2B7v160006Ev, symObjAddr: 0x2C0C, symBinAddr: 0x1000054AC, symSize: 0x2C }
  - { offsetInCU: 0x17E97, offset: 0x17E97, size: 0x8, addend: 0x0, symName: __ZNSt3__116__non_trivial_ifILb1ENS_9allocatorIcEEEC2B7v160006Ev, symObjAddr: 0x2C38, symBinAddr: 0x1000054D8, symSize: 0x14 }
  - { offsetInCU: 0x17EC1, offset: 0x17EC1, size: 0x8, addend: 0x0, symName: __ZNSt3__112basic_stringIcNS_11char_traitsIcEENS_9allocatorIcEEEC1B7v160006EOS5_, symObjAddr: 0x2C70, symBinAddr: 0x100005510, symSize: 0x34 }
  - { offsetInCU: 0x17EFA, offset: 0x17EFA, size: 0x8, addend: 0x0, symName: __ZNSt3__112basic_stringIcNS_11char_traitsIcEENS_9allocatorIcEEEC2B7v160006EOS5_, symObjAddr: 0x2CA4, symBinAddr: 0x100005544, symSize: 0x84 }
  - { offsetInCU: 0x17F33, offset: 0x17F33, size: 0x8, addend: 0x0, symName: __ZNSt3__112basic_stringIcNS_11char_traitsIcEENS_9allocatorIcEEE14__default_initB7v160006Ev, symObjAddr: 0x2D28, symBinAddr: 0x1000055C8, symSize: 0x40 }
  - { offsetInCU: 0x17F59, offset: 0x17F59, size: 0x8, addend: 0x0, symName: __ZNKSt3__112basic_stringIcNS_11char_traitsIcEENS_9allocatorIcEEE9__is_longB7v160006Ev, symObjAddr: 0x2D68, symBinAddr: 0x100005608, symSize: 0x38 }
  - { offsetInCU: 0x17F7F, offset: 0x17F7F, size: 0x8, addend: 0x0, symName: __ZNSt3__117__compressed_pairINS_12basic_stringIcNS_11char_traitsIcEENS_9allocatorIcEEE5__repES5_E5firstB7v160006Ev, symObjAddr: 0x2DB4, symBinAddr: 0x100005654, symSize: 0x24 }
  - { offsetInCU: 0x17FA5, offset: 0x17FA5, size: 0x8, addend: 0x0, symName: __ZNSt3__122__compressed_pair_elemINS_12basic_stringIcNS_11char_traitsIcEENS_9allocatorIcEEE5__repELi0ELb0EE5__getB7v160006Ev, symObjAddr: 0x2DD8, symBinAddr: 0x100005678, symSize: 0x14 }
  - { offsetInCU: 0x17FCB, offset: 0x17FCB, size: 0x8, addend: 0x0, symName: __ZNKSt3__117__compressed_pairINS_12basic_stringIcNS_11char_traitsIcEENS_9allocatorIcEEE5__repES5_E5firstB7v160006Ev, symObjAddr: 0x2DEC, symBinAddr: 0x10000568C, symSize: 0x24 }
  - { offsetInCU: 0x17FF1, offset: 0x17FF1, size: 0x8, addend: 0x0, symName: __ZNKSt3__122__compressed_pair_elemINS_12basic_stringIcNS_11char_traitsIcEENS_9allocatorIcEEE5__repELi0ELb0EE5__getB7v160006Ev, symObjAddr: 0x2E10, symBinAddr: 0x1000056B0, symSize: 0x14 }
  - { offsetInCU: 0x18017, offset: 0x18017, size: 0x8, addend: 0x0, symName: __ZNKSt3__16chrono8durationIxNS_5ratioILl1ELl1000EEEE5countB7v160006Ev, symObjAddr: 0x2F1C, symBinAddr: 0x1000057BC, symSize: 0x18 }
  - { offsetInCU: 0x1803D, offset: 0x1803D, size: 0x8, addend: 0x0, symName: __ZNSt3__16chrono8durationIxNS_5ratioILl1ELl1000EEEE4zeroB7v160006Ev, symObjAddr: 0x2F34, symBinAddr: 0x1000057D4, symSize: 0x3C }
  - { offsetInCU: 0x18051, offset: 0x18051, size: 0x8, addend: 0x0, symName: __ZNKSt3__16chrono8durationIxNS_5ratioILl1ELl1000000000EEEE5countB7v160006Ev, symObjAddr: 0x2FBC, symBinAddr: 0x10000585C, symSize: 0x18 }
  - { offsetInCU: 0x18087, offset: 0x18087, size: 0x8, addend: 0x0, symName: __ZNSt3__16chrono8durationIxNS_5ratioILl1ELl1000EEEEC1B7v160006IxEERKT_PNS_9enable_ifIXaasr14is_convertibleIS8_xEE5valueooL_ZNS_17integral_constantIbLb0EE5valueEEntsr23treat_as_floating_pointIS6_EE5valueEvE4typeE, symObjAddr: 0x2FD4, symBinAddr: 0x100005874, symSize: 0x3C }
  - { offsetInCU: 0x180D3, offset: 0x180D3, size: 0x8, addend: 0x0, symName: __ZNSt3__16chrono8durationIxNS_5ratioILl1ELl1000EEEEC2B7v160006IxEERKT_PNS_9enable_ifIXaasr14is_convertibleIS8_xEE5valueooL_ZNS_17integral_constantIbLb0EE5valueEEntsr23treat_as_floating_pointIS6_EE5valueEvE4typeE, symObjAddr: 0x3010, symBinAddr: 0x1000058B0, symSize: 0x28 }
  - { offsetInCU: 0x1811F, offset: 0x1811F, size: 0x8, addend: 0x0, symName: __ZNSt3__16chrono8durationIxNS_5ratioILl1ELl1000000000EEEEC1B7v160006IxEERKT_PNS_9enable_ifIXaasr14is_convertibleIS8_xEE5valueooL_ZNS_17integral_constantIbLb0EE5valueEEntsr23treat_as_floating_pointIS6_EE5valueEvE4typeE, symObjAddr: 0x3038, symBinAddr: 0x1000058D8, symSize: 0x3C }
  - { offsetInCU: 0x1816B, offset: 0x1816B, size: 0x8, addend: 0x0, symName: __ZNSt3__16chrono8durationIxNS_5ratioILl1ELl1000000000EEEEC2B7v160006IxEERKT_PNS_9enable_ifIXaasr14is_convertibleIS8_xEE5valueooL_ZNS_17integral_constantIbLb0EE5valueEEntsr23treat_as_floating_pointIS6_EE5valueEvE4typeE, symObjAddr: 0x3074, symBinAddr: 0x100005914, symSize: 0x28 }
  - { offsetInCU: 0x181B7, offset: 0x181B7, size: 0x8, addend: 0x0, symName: __ZNKSt3__16chrono10time_pointINS0_12steady_clockENS0_8durationIxNS_5ratioILl1ELl1000000000EEEEEE16time_since_epochB7v160006Ev, symObjAddr: 0x309C, symBinAddr: 0x10000593C, symSize: 0x20 }
  - { offsetInCU: 0x181DD, offset: 0x181DD, size: 0x8, addend: 0x0, symName: __ZNSt3__16chrono15duration_valuesIxE4zeroB7v160006Ev, symObjAddr: 0x30BC, symBinAddr: 0x10000595C, symSize: 0x8 }
  - { offsetInCU: 0x181F1, offset: 0x181F1, size: 0x8, addend: 0x0, symName: __ZNSt3__114basic_ofstreamIcNS_11char_traitsIcEEED2Ev, symObjAddr: 0x30C4, symBinAddr: 0x100005964, symSize: 0x64 }
  - { offsetInCU: 0x1822B, offset: 0x1822B, size: 0x8, addend: 0x0, symName: __ZTv0_n24_NSt3__114basic_ofstreamIcNS_11char_traitsIcEEED1Ev, symObjAddr: 0x3128, symBinAddr: 0x1000059C8, symSize: 0x28 }
  - { offsetInCU: 0x18242, offset: 0x18242, size: 0x8, addend: 0x0, symName: __ZNSt3__16vectorImNS_9allocatorImEEED2B7v160006Ev, symObjAddr: 0x3150, symBinAddr: 0x1000059F0, symSize: 0x44 }
  - { offsetInCU: 0x1826C, offset: 0x1826C, size: 0x8, addend: 0x0, symName: __ZNSt3__19basic_iosIcNS_11char_traitsIcEEEC2B7v160006Ev, symObjAddr: 0x3194, symBinAddr: 0x100005A34, symSize: 0x44 }
  - { offsetInCU: 0x18296, offset: 0x18296, size: 0x8, addend: 0x0, symName: __ZNSt3__113basic_ostreamIcNS_11char_traitsIcEEEC2B7v160006EPNS_15basic_streambufIcS2_EE, symObjAddr: 0x31D8, symBinAddr: 0x100005A78, symSize: 0x60 }
  - { offsetInCU: 0x182DB, offset: 0x182DB, size: 0x8, addend: 0x0, symName: __ZNSt3__19basic_iosIcNS_11char_traitsIcEEE8setstateB7v160006Ej, symObjAddr: 0x3238, symBinAddr: 0x100005AD8, symSize: 0x2C }
  - { offsetInCU: 0x18310, offset: 0x18310, size: 0x8, addend: 0x0, symName: __ZNSt3__18ios_baseC2B7v160006Ev, symObjAddr: 0x3264, symBinAddr: 0x100005B04, symSize: 0x24 }
  - { offsetInCU: 0x1833A, offset: 0x1833A, size: 0x8, addend: 0x0, symName: __ZNSt3__19basic_iosIcNS_11char_traitsIcEEE4initB7v160006EPNS_15basic_streambufIcS2_EE, symObjAddr: 0x3288, symBinAddr: 0x100005B28, symSize: 0x44 }
  - { offsetInCU: 0x18371, offset: 0x18371, size: 0x8, addend: 0x0, symName: __ZNSt3__111char_traitsIcE3eofEv, symObjAddr: 0x32CC, symBinAddr: 0x100005B6C, symSize: 0x8 }
  - { offsetInCU: 0x18385, offset: 0x18385, size: 0x8, addend: 0x0, symName: __ZNSt3__18ios_base8setstateB7v160006Ej, symObjAddr: 0x32D4, symBinAddr: 0x100005B74, symSize: 0x34 }
  - { offsetInCU: 0x183DD, offset: 0x183DD, size: 0x8, addend: 0x0, symName: __ZNKSt3__113basic_ostreamIcNS_11char_traitsIcEEE6sentrycvbB7v160006Ev, symObjAddr: 0x34F4, symBinAddr: 0x100005D94, symSize: 0x1C }
  - { offsetInCU: 0x18403, offset: 0x18403, size: 0x8, addend: 0x0, symName: __ZNSt3__119ostreambuf_iteratorIcNS_11char_traitsIcEEEC1B7v160006ERNS_13basic_ostreamIcS2_EE, symObjAddr: 0x3750, symBinAddr: 0x100005FF0, symSize: 0x34 }
  - { offsetInCU: 0x1843B, offset: 0x1843B, size: 0x8, addend: 0x0, symName: __ZNKSt3__18ios_base5flagsB7v160006Ev, symObjAddr: 0x3784, symBinAddr: 0x100006024, symSize: 0x18 }
  - { offsetInCU: 0x18463, offset: 0x18463, size: 0x8, addend: 0x0, symName: __ZNKSt3__19basic_iosIcNS_11char_traitsIcEEE4fillB7v160006Ev, symObjAddr: 0x379C, symBinAddr: 0x10000603C, symSize: 0x64 }
  - { offsetInCU: 0x1848B, offset: 0x1848B, size: 0x8, addend: 0x0, symName: __ZNKSt3__119ostreambuf_iteratorIcNS_11char_traitsIcEEE6failedB7v160006Ev, symObjAddr: 0x3800, symBinAddr: 0x1000060A0, symSize: 0x24 }
  - { offsetInCU: 0x184B1, offset: 0x184B1, size: 0x8, addend: 0x0, symName: __ZNKSt3__18ios_base5widthB7v160006Ev, symObjAddr: 0x3824, symBinAddr: 0x1000060C4, symSize: 0x18 }
  - { offsetInCU: 0x184D9, offset: 0x184D9, size: 0x8, addend: 0x0, symName: __ZNSt3__115basic_streambufIcNS_11char_traitsIcEEE5sputnB7v160006EPKcl, symObjAddr: 0x383C, symBinAddr: 0x1000060DC, symSize: 0x3C }
  - { offsetInCU: 0x1851B, offset: 0x1851B, size: 0x8, addend: 0x0, symName: __ZNSt3__112basic_stringIcNS_11char_traitsIcEENS_9allocatorIcEEEC1B7v160006Emc, symObjAddr: 0x3878, symBinAddr: 0x100006118, symSize: 0x3C }
  - { offsetInCU: 0x18563, offset: 0x18563, size: 0x8, addend: 0x0, symName: __ZNSt3__112basic_stringIcNS_11char_traitsIcEENS_9allocatorIcEEE4dataB7v160006Ev, symObjAddr: 0x38B4, symBinAddr: 0x100006154, symSize: 0x28 }
  - { offsetInCU: 0x18589, offset: 0x18589, size: 0x8, addend: 0x0, symName: __ZNSt3__18ios_base5widthB7v160006El, symObjAddr: 0x38DC, symBinAddr: 0x10000617C, symSize: 0x2C }
  - { offsetInCU: 0x185CF, offset: 0x185CF, size: 0x8, addend: 0x0, symName: __ZNSt3__112basic_stringIcNS_11char_traitsIcEENS_9allocatorIcEEEC2B7v160006Emc, symObjAddr: 0x3908, symBinAddr: 0x1000061A8, symSize: 0x54 }
  - { offsetInCU: 0x18617, offset: 0x18617, size: 0x8, addend: 0x0, symName: __ZNSt3__112basic_stringIcNS_11char_traitsIcEENS_9allocatorIcEEE13__get_pointerB7v160006Ev, symObjAddr: 0x3970, symBinAddr: 0x100006210, symSize: 0x54 }
  - { offsetInCU: 0x1863D, offset: 0x1863D, size: 0x8, addend: 0x0, symName: __ZNSt3__112basic_stringIcNS_11char_traitsIcEENS_9allocatorIcEEE18__get_long_pointerB7v160006Ev, symObjAddr: 0x39C4, symBinAddr: 0x100006264, symSize: 0x28 }
  - { offsetInCU: 0x18663, offset: 0x18663, size: 0x8, addend: 0x0, symName: __ZNSt3__112basic_stringIcNS_11char_traitsIcEENS_9allocatorIcEEE19__get_short_pointerB7v160006Ev, symObjAddr: 0x39EC, symBinAddr: 0x10000628C, symSize: 0x28 }
  - { offsetInCU: 0x18689, offset: 0x18689, size: 0x8, addend: 0x0, symName: __ZNSt3__114pointer_traitsIPcE10pointer_toB7v160006ERc, symObjAddr: 0x3A14, symBinAddr: 0x1000062B4, symSize: 0x14 }
  - { offsetInCU: 0x186AC, offset: 0x186AC, size: 0x8, addend: 0x0, symName: __ZNSt3__119ostreambuf_iteratorIcNS_11char_traitsIcEEEC2B7v160006ERNS_13basic_ostreamIcS2_EE, symObjAddr: 0x3A28, symBinAddr: 0x1000062C8, symSize: 0x54 }
  - { offsetInCU: 0x186E4, offset: 0x186E4, size: 0x8, addend: 0x0, symName: __ZNKSt3__19basic_iosIcNS_11char_traitsIcEEE5rdbufB7v160006Ev, symObjAddr: 0x3A7C, symBinAddr: 0x10000631C, symSize: 0x24 }
  - { offsetInCU: 0x1870C, offset: 0x1870C, size: 0x8, addend: 0x0, symName: __ZNKSt3__18ios_base5rdbufB7v160006Ev, symObjAddr: 0x3AA0, symBinAddr: 0x100006340, symSize: 0x18 }
  - { offsetInCU: 0x18732, offset: 0x18732, size: 0x8, addend: 0x0, symName: __ZNSt3__111char_traitsIcE11eq_int_typeEii, symObjAddr: 0x3AB8, symBinAddr: 0x100006358, symSize: 0x28 }
  - { offsetInCU: 0x18763, offset: 0x18763, size: 0x8, addend: 0x0, symName: __ZNKSt3__19basic_iosIcNS_11char_traitsIcEEE5widenB7v160006Ec, symObjAddr: 0x3AE0, symBinAddr: 0x100006380, symSize: 0x84 }
  - { offsetInCU: 0x187CC, offset: 0x187CC, size: 0x8, addend: 0x0, symName: __ZNKSt3__15ctypeIcE5widenB7v160006Ec, symObjAddr: 0x3B90, symBinAddr: 0x100006430, symSize: 0x38 }
  - { offsetInCU: 0x18801, offset: 0x18801, size: 0x8, addend: 0x0, symName: __ZNSt3__123mersenne_twister_engineIjLm32ELm624ELm397ELm31ELj2567483615ELm11ELj4294967295ELm7ELj2636928640ELm15ELj4022730752ELm18ELj1812433253EEC2B7v160006Ej, symObjAddr: 0x3BC8, symBinAddr: 0x100006468, symSize: 0x34 }
  - { offsetInCU: 0x18839, offset: 0x18839, size: 0x8, addend: 0x0, symName: __ZNSt3__123mersenne_twister_engineIjLm32ELm624ELm397ELm31ELj2567483615ELm11ELj4294967295ELm7ELj2636928640ELm15ELj4022730752ELm18ELj1812433253EE4seedEj, symObjAddr: 0x3BFC, symBinAddr: 0x10000649C, symSize: 0xC4 }
  - { offsetInCU: 0x1888C, offset: 0x1888C, size: 0x8, addend: 0x0, symName: __ZNSt3__123mersenne_twister_engineIjLm32ELm624ELm397ELm31ELj2567483615ELm11ELj4294967295ELm7ELj2636928640ELm15ELj4022730752ELm18ELj1812433253EE8__rshiftB7v160006ILm30EEENS_9enable_ifIXltT_L_ZNS1_3_DtEEEjE4typeEj, symObjAddr: 0x3CC0, symBinAddr: 0x100006560, symSize: 0x18 }
  - { offsetInCU: 0x188B9, offset: 0x188B9, size: 0x8, addend: 0x0, symName: __ZNSt3__124uniform_int_distributionIiEC2Eii, symObjAddr: 0x3CD8, symBinAddr: 0x100006578, symSize: 0x3C }
  - { offsetInCU: 0x188FF, offset: 0x188FF, size: 0x8, addend: 0x0, symName: __ZNSt3__124uniform_int_distributionIiE10param_typeC1Eii, symObjAddr: 0x3D14, symBinAddr: 0x1000065B4, symSize: 0x3C }
  - { offsetInCU: 0x18945, offset: 0x18945, size: 0x8, addend: 0x0, symName: __ZNSt3__124uniform_int_distributionIiE10param_typeC2Eii, symObjAddr: 0x3D50, symBinAddr: 0x1000065F0, symSize: 0x2C }
  - { offsetInCU: 0x1898B, offset: 0x1898B, size: 0x8, addend: 0x0, symName: __ZNSt3__113basic_filebufIcNS_11char_traitsIcEEE4openERKNS_12basic_stringIcS2_NS_9allocatorIcEEEEj, symObjAddr: 0x3D7C, symBinAddr: 0x10000661C, symSize: 0x44 }
  - { offsetInCU: 0x189CF, offset: 0x189CF, size: 0x8, addend: 0x0, symName: __ZNKSt3__112basic_stringIcNS_11char_traitsIcEENS_9allocatorIcEEE5c_strB7v160006Ev, symObjAddr: 0x3DC0, symBinAddr: 0x100006660, symSize: 0x24 }
  - { offsetInCU: 0x189F5, offset: 0x189F5, size: 0x8, addend: 0x0, symName: __ZNKSt3__112basic_stringIcNS_11char_traitsIcEENS_9allocatorIcEEE4dataB7v160006Ev, symObjAddr: 0x3DE4, symBinAddr: 0x100006684, symSize: 0x28 }
  - { offsetInCU: 0x18A1B, offset: 0x18A1B, size: 0x8, addend: 0x0, symName: __ZNKSt3__112basic_stringIcNS_11char_traitsIcEENS_9allocatorIcEEE13__get_pointerB7v160006Ev, symObjAddr: 0x3E20, symBinAddr: 0x1000066C0, symSize: 0x54 }
  - { offsetInCU: 0x18A41, offset: 0x18A41, size: 0x8, addend: 0x0, symName: __ZNKSt3__112basic_stringIcNS_11char_traitsIcEENS_9allocatorIcEEE18__get_long_pointerB7v160006Ev, symObjAddr: 0x3E74, symBinAddr: 0x100006714, symSize: 0x28 }
  - { offsetInCU: 0x18A67, offset: 0x18A67, size: 0x8, addend: 0x0, symName: __ZNKSt3__112basic_stringIcNS_11char_traitsIcEENS_9allocatorIcEEE19__get_short_pointerB7v160006Ev, symObjAddr: 0x3E9C, symBinAddr: 0x10000673C, symSize: 0x28 }
  - { offsetInCU: 0x18A8D, offset: 0x18A8D, size: 0x8, addend: 0x0, symName: __ZNSt3__114pointer_traitsIPKcE10pointer_toB7v160006ERS1_, symObjAddr: 0x3EC4, symBinAddr: 0x100006764, symSize: 0x14 }
  - { offsetInCU: 0x18AB0, offset: 0x18AB0, size: 0x8, addend: 0x0, symName: __ZNKSt3__124uniform_int_distributionIiE10param_type1bEv, symObjAddr: 0x4060, symBinAddr: 0x100006900, symSize: 0x18 }
  - { offsetInCU: 0x18AD6, offset: 0x18AD6, size: 0x8, addend: 0x0, symName: __ZNKSt3__124uniform_int_distributionIiE10param_type1aEv, symObjAddr: 0x4078, symBinAddr: 0x100006918, symSize: 0x18 }
  - { offsetInCU: 0x18AFC, offset: 0x18AFC, size: 0x8, addend: 0x0, symName: __ZNSt3__125__independent_bits_engineINS_23mersenne_twister_engineIjLm32ELm624ELm397ELm31ELj2567483615ELm11ELj4294967295ELm7ELj2636928640ELm15ELj4022730752ELm18ELj1812433253EEEjEC1ERS2_m, symObjAddr: 0x4090, symBinAddr: 0x100006930, symSize: 0x3C }
  - { offsetInCU: 0x18B43, offset: 0x18B43, size: 0x8, addend: 0x0, symName: __ZNSt3__125__independent_bits_engineINS_23mersenne_twister_engineIjLm32ELm624ELm397ELm31ELj2567483615ELm11ELj4294967295ELm7ELj2636928640ELm15ELj4022730752ELm18ELj1812433253EEEjEclEv, symObjAddr: 0x40CC, symBinAddr: 0x10000696C, symSize: 0x24 }
  - { offsetInCU: 0x18B69, offset: 0x18B69, size: 0x8, addend: 0x0, symName: __ZNSt3__114numeric_limitsIjE3maxB7v160006Ev, symObjAddr: 0x4144, symBinAddr: 0x1000069E4, symSize: 0x14 }
  - { offsetInCU: 0x18B7D, offset: 0x18B7D, size: 0x8, addend: 0x0, symName: __ZNSt3__125__independent_bits_engineINS_23mersenne_twister_engineIjLm32ELm624ELm397ELm31ELj2567483615ELm11ELj4294967295ELm7ELj2636928640ELm15ELj4022730752ELm18ELj1812433253EEEjEC2ERS2_m, symObjAddr: 0x4158, symBinAddr: 0x1000069F8, symSize: 0x22C }
  - { offsetInCU: 0x18BC4, offset: 0x18BC4, size: 0x8, addend: 0x0, symName: __ZNSt3__125__independent_bits_engineINS_23mersenne_twister_engineIjLm32ELm624ELm397ELm31ELj2567483615ELm11ELj4294967295ELm7ELj2636928640ELm15ELj4022730752ELm18ELj1812433253EEEjE6__evalENS_17integral_constantIbLb0EEE, symObjAddr: 0x4384, symBinAddr: 0x100006C24, symSize: 0x38 }
  - { offsetInCU: 0x18BF6, offset: 0x18BF6, size: 0x8, addend: 0x0, symName: __ZNSt3__123mersenne_twister_engineIjLm32ELm624ELm397ELm31ELj2567483615ELm11ELj4294967295ELm7ELj2636928640ELm15ELj4022730752ELm18ELj1812433253EEclEv, symObjAddr: 0x43BC, symBinAddr: 0x100006C5C, symSize: 0x14C }
  - { offsetInCU: 0x18C69, offset: 0x18C69, size: 0x8, addend: 0x0, symName: __ZNSt3__123mersenne_twister_engineIjLm32ELm624ELm397ELm31ELj2567483615ELm11ELj4294967295ELm7ELj2636928640ELm15ELj4022730752ELm18ELj1812433253EE8__rshiftB7v160006ILm1EEENS_9enable_ifIXltT_L_ZNS1_3_DtEEEjE4typeEj, symObjAddr: 0x4508, symBinAddr: 0x100006DA8, symSize: 0x18 }
  - { offsetInCU: 0x18C96, offset: 0x18C96, size: 0x8, addend: 0x0, symName: __ZNSt3__123mersenne_twister_engineIjLm32ELm624ELm397ELm31ELj2567483615ELm11ELj4294967295ELm7ELj2636928640ELm15ELj4022730752ELm18ELj1812433253EE8__rshiftB7v160006ILm11EEENS_9enable_ifIXltT_L_ZNS1_3_DtEEEjE4typeEj, symObjAddr: 0x4520, symBinAddr: 0x100006DC0, symSize: 0x18 }
  - { offsetInCU: 0x18CC3, offset: 0x18CC3, size: 0x8, addend: 0x0, symName: __ZNSt3__123mersenne_twister_engineIjLm32ELm624ELm397ELm31ELj2567483615ELm11ELj4294967295ELm7ELj2636928640ELm15ELj4022730752ELm18ELj1812433253EE8__lshiftB7v160006ILm7EEENS_9enable_ifIXltT_Lm32EEjE4typeEj, symObjAddr: 0x4538, symBinAddr: 0x100006DD8, symSize: 0x1C }
  - { offsetInCU: 0x18CF0, offset: 0x18CF0, size: 0x8, addend: 0x0, symName: __ZNSt3__123mersenne_twister_engineIjLm32ELm624ELm397ELm31ELj2567483615ELm11ELj4294967295ELm7ELj2636928640ELm15ELj4022730752ELm18ELj1812433253EE8__lshiftB7v160006ILm15EEENS_9enable_ifIXltT_Lm32EEjE4typeEj, symObjAddr: 0x4554, symBinAddr: 0x100006DF4, symSize: 0x1C }
  - { offsetInCU: 0x18D1D, offset: 0x18D1D, size: 0x8, addend: 0x0, symName: __ZNSt3__123mersenne_twister_engineIjLm32ELm624ELm397ELm31ELj2567483615ELm11ELj4294967295ELm7ELj2636928640ELm15ELj4022730752ELm18ELj1812433253EE8__rshiftB7v160006ILm18EEENS_9enable_ifIXltT_L_ZNS1_3_DtEEEjE4typeEj, symObjAddr: 0x4570, symBinAddr: 0x100006E10, symSize: 0x18 }
  - { offsetInCU: 0x18D4A, offset: 0x18D4A, size: 0x8, addend: 0x0, symName: __ZNSt3__123__libcpp_numeric_limitsIjLb1EE3maxB7v160006Ev, symObjAddr: 0x45A0, symBinAddr: 0x100006E40, symSize: 0x8 }
  - { offsetInCU: 0x18D5E, offset: 0x18D5E, size: 0x8, addend: 0x0, symName: __ZNSt3__125__independent_bits_engineINS_13random_deviceEjEC1ERS1_m, symObjAddr: 0x4730, symBinAddr: 0x100006FD0, symSize: 0x3C }
  - { offsetInCU: 0x18DA5, offset: 0x18DA5, size: 0x8, addend: 0x0, symName: __ZNSt3__125__independent_bits_engineINS_13random_deviceEjEclEv, symObjAddr: 0x476C, symBinAddr: 0x10000700C, symSize: 0x24 }
  - { offsetInCU: 0x18DCB, offset: 0x18DCB, size: 0x8, addend: 0x0, symName: __ZNSt3__125__independent_bits_engineINS_13random_deviceEjEC2ERS1_m, symObjAddr: 0x4790, symBinAddr: 0x100007030, symSize: 0x22C }
  - { offsetInCU: 0x18E12, offset: 0x18E12, size: 0x8, addend: 0x0, symName: __ZNSt3__125__independent_bits_engineINS_13random_deviceEjE6__evalENS_17integral_constantIbLb0EEE, symObjAddr: 0x49BC, symBinAddr: 0x10000725C, symSize: 0x38 }
  - { offsetInCU: 0x26, offset: 0x18F80, size: 0x8, addend: 0x0, symName: __ZN9StopwatchC2Ev, symObjAddr: 0x0, symBinAddr: 0x100007294, symSize: 0x44 }
  - { offsetInCU: 0x43, offset: 0x18F9D, size: 0x8, addend: 0x0, symName: __ZNSt3__16chronomiB7v160006INS0_12steady_clockENS0_8durationIxNS_5ratioILl1ELl1000000000EEEEExS5_EENS0_10time_pointIT_NS_11common_typeIJT0_NS3_IT1_T2_EEEE4typeEEERKNS7_IS8_SA_EERKSD_, symObjAddr: 0x170, symBinAddr: 0x100007404, symSize: 0x50 }
  - { offsetInCU: 0x2AAB, offset: 0x1BA05, size: 0x8, addend: 0x0, symName: __ZN9StopwatchC2Ev, symObjAddr: 0x0, symBinAddr: 0x100007294, symSize: 0x44 }
  - { offsetInCU: 0x2AD7, offset: 0x1BA31, size: 0x8, addend: 0x0, symName: __ZNSt3__16chrono10time_pointINS0_12steady_clockENS0_8durationIxNS_5ratioILl1ELl1000000000EEEEEEC1B7v160006Ev, symObjAddr: 0x44, symBinAddr: 0x1000072D8, symSize: 0x2C }
  - { offsetInCU: 0x2B01, offset: 0x1BA5B, size: 0x8, addend: 0x0, symName: __ZN9Stopwatch5resetEv, symObjAddr: 0x70, symBinAddr: 0x100007304, symSize: 0x54 }
  - { offsetInCU: 0x2B29, offset: 0x1BA83, size: 0x8, addend: 0x0, symName: __ZN9Stopwatch5startEv, symObjAddr: 0xC4, symBinAddr: 0x100007358, symSize: 0x80 }
  - { offsetInCU: 0x2B51, offset: 0x1BAAB, size: 0x8, addend: 0x0, symName: __ZN9StopwatchC1Ev, symObjAddr: 0x144, symBinAddr: 0x1000073D8, symSize: 0x2C }
  - { offsetInCU: 0x2B7D, offset: 0x1BAD7, size: 0x8, addend: 0x0, symName: __ZNSt3__16chrono8durationIxNS_5ratioILl1ELl1000000000EEEE4zeroB7v160006Ev, symObjAddr: 0x1C0, symBinAddr: 0x100007454, symSize: 0x3C }
  - { offsetInCU: 0x2B91, offset: 0x1BAEB, size: 0x8, addend: 0x0, symName: __ZN9Stopwatch5pauseEv, symObjAddr: 0x1FC, symBinAddr: 0x100007490, symSize: 0x80 }
  - { offsetInCU: 0x2BD5, offset: 0x1BB2F, size: 0x8, addend: 0x0, symName: __ZNSt3__16chrono8durationIxNS_5ratioILl1ELl1000000000EEEEpLB7v160006ERKS4_, symObjAddr: 0x2D4, symBinAddr: 0x100007510, symSize: 0x44 }
  - { offsetInCU: 0x2C0A, offset: 0x1BB64, size: 0x8, addend: 0x0, symName: __ZNSt3__16chrono10time_pointINS0_12steady_clockENS0_8durationIxNS_5ratioILl1ELl1000000000EEEEEEC2B7v160006Ev, symObjAddr: 0x318, symBinAddr: 0x100007554, symSize: 0x34 }
  - { offsetInCU: 0x2C34, offset: 0x1BB8E, size: 0x8, addend: 0x0, symName: __ZNSt3__16chrono10time_pointINS0_12steady_clockENS0_8durationIxNS_5ratioILl1ELl1000000000EEEEEEC1B7v160006ERKS6_, symObjAddr: 0x3DC, symBinAddr: 0x100007588, symSize: 0x34 }
  - { offsetInCU: 0x2C6C, offset: 0x1BBC6, size: 0x8, addend: 0x0, symName: __ZNSt3__16chrono10time_pointINS0_12steady_clockENS0_8durationIxNS_5ratioILl1ELl1000000000EEEEEEC2B7v160006ERKS6_, symObjAddr: 0x48C, symBinAddr: 0x1000075BC, symSize: 0x24 }
...
